(dp1
S'failed'
p2
(lp3
S'1'
aS'2'
asS'source_names'
p4
(lp5
S'/home/mike/Desktop/DevWork/Projects/Designs/test/ShoppingList_test.py'
p6
aS'./test'
p7
aS'*_test.py'
p8
asS'ids'
p9
(dp10
I1
(S'/home/mike/Desktop/DevWork/Projects/Designs/test/ShoppingList_test.py'
S'test.ShoppingList_test'
Ntp11
sI2
(S'/home/mike/Desktop/DevWork/Projects/Designs/test/*_test.py'
p12
S'*_test'
p13
Ntp14
ss.